target datalayout = "e-m:e-p270:32:32-p271:32:32-p272:64:64-i64:64-i128:128-f80:128-n8:16:32:64-S128"
target triple = "x86_64-pc-linux-gnu"

%struct.Map_TimeStruct_t_ = type { float, float, float }
%struct.Map_HashTableStruct_t_ = type { ptr, i32, i32, ptr }
%struct.Map_HashEntryStruct_t_ = type { [2 x i32], i32, ptr, ptr }
%struct.Map_SuperStruct_t_ = type { i32, i32, [4 x i8], i32, [6 x ptr], ptr, [2 x i32], [6 x %struct.Map_TimeStruct_t_], [6 x %struct.Map_TimeStruct_t_], %struct.Map_TimeStruct_t_, float, ptr, ptr }

@.str = private unnamed_addr constant [7 x i8] c"%5d : \00", align 1
@.str.1 = private unnamed_addr constant [7 x i8] c"%5d   \00", align 1
@.str.2 = private unnamed_addr constant [13 x i8] c"A = %5.2f   \00", align 1
@.str.3 = private unnamed_addr constant [13 x i8] c"D = %5.2f   \00", align 1
@.str.4 = private unnamed_addr constant [3 x i8] c"%s\00", align 1
@.str.5 = private unnamed_addr constant [2 x i8] c"\0A\00", align 1

; Function Attrs: nounwind uwtable
define void @Map_SuperTableSortSupergates(ptr noundef %0, i32 noundef %1) #0 {
  %3 = alloca ptr, align 8
  %4 = alloca i32, align 4
  %5 = alloca ptr, align 8
  %6 = alloca ptr, align 8
  %7 = alloca ptr, align 8
  %8 = alloca i32, align 4
  %9 = alloca i32, align 4
  store ptr %0, ptr %3, align 8
  store i32 %1, ptr %4, align 4
  %10 = load i32, ptr %4, align 4
  %11 = sext i32 %10 to i64
  %12 = mul i64 8, %11
  %13 = call noalias ptr @malloc(i64 noundef %12) #5
  store ptr %13, ptr %6, align 8
  store i32 0, ptr %8, align 4
  store i32 0, ptr %9, align 4
  br label %14

14:                                               ; preds = %55, %2
  %15 = load i32, ptr %9, align 4
  %16 = load ptr, ptr %3, align 8
  %17 = getelementptr inbounds %struct.Map_HashTableStruct_t_, ptr %16, i32 0, i32 1
  %18 = load i32, ptr %17, align 8
  %19 = icmp slt i32 %15, %18
  br i1 %19, label %20, label %58

20:                                               ; preds = %14
  %21 = load ptr, ptr %3, align 8
  %22 = getelementptr inbounds %struct.Map_HashTableStruct_t_, ptr %21, i32 0, i32 0
  %23 = load ptr, ptr %22, align 8
  %24 = load i32, ptr %9, align 4
  %25 = sext i32 %24 to i64
  %26 = getelementptr inbounds ptr, ptr %23, i64 %25
  %27 = load ptr, ptr %26, align 8
  store ptr %27, ptr %5, align 8
  br label %28

28:                                               ; preds = %50, %20
  %29 = load ptr, ptr %5, align 8
  %30 = icmp ne ptr %29, null
  br i1 %30, label %31, label %54

31:                                               ; preds = %28
  %32 = load ptr, ptr %5, align 8
  %33 = getelementptr inbounds %struct.Map_HashEntryStruct_t_, ptr %32, i32 0, i32 2
  %34 = load ptr, ptr %33, align 8
  store ptr %34, ptr %7, align 8
  br label %35

35:                                               ; preds = %45, %31
  %36 = load ptr, ptr %7, align 8
  %37 = icmp ne ptr %36, null
  br i1 %37, label %38, label %49

38:                                               ; preds = %35
  %39 = load ptr, ptr %7, align 8
  %40 = load ptr, ptr %6, align 8
  %41 = load i32, ptr %8, align 4
  %42 = add nsw i32 %41, 1
  store i32 %42, ptr %8, align 4
  %43 = sext i32 %41 to i64
  %44 = getelementptr inbounds ptr, ptr %40, i64 %43
  store ptr %39, ptr %44, align 8
  br label %45

45:                                               ; preds = %38
  %46 = load ptr, ptr %7, align 8
  %47 = getelementptr inbounds %struct.Map_SuperStruct_t_, ptr %46, i32 0, i32 12
  %48 = load ptr, ptr %47, align 8
  store ptr %48, ptr %7, align 8
  br label %35, !llvm.loop !13

49:                                               ; preds = %35
  br label %50

50:                                               ; preds = %49
  %51 = load ptr, ptr %5, align 8
  %52 = getelementptr inbounds %struct.Map_HashEntryStruct_t_, ptr %51, i32 0, i32 3
  %53 = load ptr, ptr %52, align 8
  store ptr %53, ptr %5, align 8
  br label %28, !llvm.loop !14

54:                                               ; preds = %28
  br label %55

55:                                               ; preds = %54
  %56 = load i32, ptr %9, align 4
  %57 = add nsw i32 %56, 1
  store i32 %57, ptr %9, align 4
  br label %14, !llvm.loop !15

58:                                               ; preds = %14
  %59 = load ptr, ptr %6, align 8
  %60 = load i32, ptr %8, align 4
  %61 = sext i32 %60 to i64
  call void @qsort(ptr noundef %59, i64 noundef %61, i64 noundef 8, ptr noundef @Map_SuperTableCompareSupergates)
  store i32 0, ptr %9, align 4
  br label %62

62:                                               ; preds = %120, %58
  %63 = load i32, ptr %9, align 4
  %64 = icmp slt i32 %63, 10
  br i1 %64, label %65, label %123

65:                                               ; preds = %62
  %66 = load ptr, ptr %6, align 8
  %67 = load i32, ptr %9, align 4
  %68 = sext i32 %67 to i64
  %69 = getelementptr inbounds ptr, ptr %66, i64 %68
  %70 = load ptr, ptr %69, align 8
  %71 = getelementptr inbounds %struct.Map_SuperStruct_t_, ptr %70, i32 0, i32 3
  %72 = load i32, ptr %71, align 4
  %73 = icmp eq i32 %72, 0
  br i1 %73, label %74, label %75

74:                                               ; preds = %65
  br label %123

75:                                               ; preds = %65
  %76 = load ptr, ptr %6, align 8
  %77 = load i32, ptr %9, align 4
  %78 = sext i32 %77 to i64
  %79 = getelementptr inbounds ptr, ptr %76, i64 %78
  %80 = load ptr, ptr %79, align 8
  %81 = getelementptr inbounds %struct.Map_SuperStruct_t_, ptr %80, i32 0, i32 3
  %82 = load i32, ptr %81, align 4
  %83 = call i32 (ptr, ...) @printf(ptr noundef @.str, i32 noundef %82)
  %84 = load ptr, ptr %6, align 8
  %85 = load i32, ptr %9, align 4
  %86 = sext i32 %85 to i64
  %87 = getelementptr inbounds ptr, ptr %84, i64 %86
  %88 = load ptr, ptr %87, align 8
  %89 = getelementptr inbounds %struct.Map_SuperStruct_t_, ptr %88, i32 0, i32 0
  %90 = load i32, ptr %89, align 8
  %91 = call i32 (ptr, ...) @printf(ptr noundef @.str.1, i32 noundef %90)
  %92 = load ptr, ptr %6, align 8
  %93 = load i32, ptr %9, align 4
  %94 = sext i32 %93 to i64
  %95 = getelementptr inbounds ptr, ptr %92, i64 %94
  %96 = load ptr, ptr %95, align 8
  %97 = getelementptr inbounds %struct.Map_SuperStruct_t_, ptr %96, i32 0, i32 10
  %98 = load float, ptr %97, align 4
  %99 = fpext float %98 to double
  %100 = call i32 (ptr, ...) @printf(ptr noundef @.str.2, double noundef %99)
  %101 = load ptr, ptr %6, align 8
  %102 = load i32, ptr %9, align 4
  %103 = sext i32 %102 to i64
  %104 = getelementptr inbounds ptr, ptr %101, i64 %103
  %105 = load ptr, ptr %104, align 8
  %106 = getelementptr inbounds %struct.Map_SuperStruct_t_, ptr %105, i32 0, i32 9
  %107 = getelementptr inbounds %struct.Map_TimeStruct_t_, ptr %106, i32 0, i32 0
  %108 = load float, ptr %107, align 8
  %109 = fpext float %108 to double
  %110 = call i32 (ptr, ...) @printf(ptr noundef @.str.3, double noundef %109)
  %111 = load ptr, ptr %6, align 8
  %112 = load i32, ptr %9, align 4
  %113 = sext i32 %112 to i64
  %114 = getelementptr inbounds ptr, ptr %111, i64 %113
  %115 = load ptr, ptr %114, align 8
  %116 = getelementptr inbounds %struct.Map_SuperStruct_t_, ptr %115, i32 0, i32 11
  %117 = load ptr, ptr %116, align 8
  %118 = call i32 (ptr, ...) @printf(ptr noundef @.str.4, ptr noundef %117)
  %119 = call i32 (ptr, ...) @printf(ptr noundef @.str.5)
  br label %120

120:                                              ; preds = %75
  %121 = load i32, ptr %9, align 4
  %122 = add nsw i32 %121, 1
  store i32 %122, ptr %9, align 4
  br label %62, !llvm.loop !16

123:                                              ; preds = %74, %62
  %124 = load ptr, ptr %6, align 8
  %125 = icmp ne ptr %124, null
  br i1 %125, label %126, label %128

126:                                              ; preds = %123
  %127 = load ptr, ptr %6, align 8
  call void @free(ptr noundef %127) #6
  store ptr null, ptr %6, align 8
  br label %129

128:                                              ; preds = %123
  br label %129

129:                                              ; preds = %128, %126
  ret void
}