; Function Attrs: nounwind uwtable
define void @Map_SuperTableSortSupergates(ptr noundef readonly captures(none) %0, i32 noundef %1) local_unnamed_addr #5 {
  %3 = sext i32 %1 to i64
  %4 = shl nsw i64 %3, 3
  %5 = tail call noalias ptr @malloc(i64 noundef %4) #16
  %6 = getelementptr inbounds nuw i8, ptr %0, i64 8
  %7 = load i32, ptr %6, align 8
  %8 = icmp sgt i32 %7, 0
  br i1 %8, label %.lr.ph55, label %._crit_edge56

.lr.ph55:                                         ; preds = %2
  %9 = load ptr, ptr %0, align 8
  %wide.trip.count = zext nneg i32 %7 to i64
  br label %10

10:                                               ; preds = %.lr.ph55, %._crit_edge50
  %indvars.iv60 = phi i64 [ 0, %.lr.ph55 ], [ %indvars.iv.next61, %._crit_edge50 ]
  %.03152 = phi i32 [ 0, %.lr.ph55 ], [ %.132.lcssa, %._crit_edge50 ]
  %11 = getelementptr inbounds nuw ptr, ptr %9, i64 %indvars.iv60
  %.03444 = load ptr, ptr %11, align 8
  %.not3745 = icmp eq ptr %.03444, null
  br i1 %.not3745, label %._crit_edge50, label %.lr.ph49

.lr.ph49:                                         ; preds = %10, %._crit_edge
  %.03447 = phi ptr [ %.034, %._crit_edge ], [ %.03444, %10 ]
  %.13246 = phi i32 [ %.2.lcssa, %._crit_edge ], [ %.03152, %10 ]
  %12 = getelementptr inbounds nuw i8, ptr %.03447, i64 16
  %.03340 = load ptr, ptr %12, align 8
  %.not3841 = icmp eq ptr %.03340, null
  br i1 %.not3841, label %._crit_edge, label %.lr.ph.preheader

.lr.ph.preheader:                                 ; preds = %.lr.ph49
  %13 = sext i32 %.13246 to i64
  br label %.lr.ph

.lr.ph:                                           ; preds = %.lr.ph.preheader, %.lr.ph
  %indvars.iv = phi i64 [ %13, %.lr.ph.preheader ], [ %indvars.iv.next, %.lr.ph ]
  %.03343 = phi ptr [ %.03340, %.lr.ph.preheader ], [ %.033, %.lr.ph ]
  %indvars.iv.next = add nsw i64 %indvars.iv, 1
  %14 = getelementptr inbounds ptr, ptr %5, i64 %indvars.iv
  store ptr %.03343, ptr %14, align 8
  %15 = getelementptr inbounds nuw i8, ptr %.03343, i64 248
  %.033 = load ptr, ptr %15, align 8
  %.not38 = icmp eq ptr %.033, null
  br i1 %.not38, label %._crit_edge.loopexit, label %.lr.ph, !llvm.loop !13

._crit_edge.loopexit:                             ; preds = %.lr.ph
  %16 = trunc nsw i64 %indvars.iv.next to i32
  br label %._crit_edge

._crit_edge:                                      ; preds = %._crit_edge.loopexit, %.lr.ph49
  %.2.lcssa = phi i32 [ %.13246, %.lr.ph49 ], [ %16, %._crit_edge.loopexit ]
  %17 = getelementptr inbounds nuw i8, ptr %.03447, i64 24
  %.034 = load ptr, ptr %17, align 8
  %.not37 = icmp eq ptr %.034, null
  br i1 %.not37, label %._crit_edge50, label %.lr.ph49, !llvm.loop !14

._crit_edge50:                                    ; preds = %._crit_edge, %10
  %.132.lcssa = phi i32 [ %.03152, %10 ], [ %.2.lcssa, %._crit_edge ]
  %indvars.iv.next61 = add nuw nsw i64 %indvars.iv60, 1
  %exitcond.not = icmp eq i64 %indvars.iv.next61, %wide.trip.count
  br i1 %exitcond.not, label %._crit_edge56.loopexit, label %10, !llvm.loop !15

._crit_edge56.loopexit:                           ; preds = %._crit_edge50
  %18 = sext i32 %.132.lcssa to i64
  br label %._crit_edge56

._crit_edge56:                                    ; preds = %._crit_edge56.loopexit, %2
  %.031.lcssa = phi i64 [ 0, %2 ], [ %18, %._crit_edge56.loopexit ]
  tail call void @qsort(ptr noundef %5, i64 noundef %.031.lcssa, i64 noundef 8, ptr noundef nonnull @Map_SuperTableCompareSupergates) #15
  br label %19

19:                                               ; preds = %._crit_edge56, %25
  %indvars.iv63 = phi i64 [ 0, %._crit_edge56 ], [ %indvars.iv.next64, %25 ]
  %20 = getelementptr inbounds nuw ptr, ptr %5, i64 %indvars.iv63
  %21 = load ptr, ptr %20, align 8
  %22 = getelementptr inbounds nuw i8, ptr %21, i64 12
  %23 = load i32, ptr %22, align 4
  %24 = icmp eq i32 %23, 0
  br i1 %24, label %44, label %25

25:                                               ; preds = %19
  %26 = tail call i32 (ptr, ...) @printf(ptr noundef nonnull dereferenceable(1) @.str, i32 noundef %23)
  %27 = load ptr, ptr %20, align 8
  %28 = load i32, ptr %27, align 8
  %29 = tail call i32 (ptr, ...) @printf(ptr noundef nonnull dereferenceable(1) @.str.1, i32 noundef %28)
  %30 = load ptr, ptr %20, align 8
  %31 = getelementptr inbounds nuw i8, ptr %30, i64 236
  %32 = load float, ptr %31, align 4
  %33 = fpext float %32 to double
  %34 = tail call i32 (ptr, ...) @printf(ptr noundef nonnull dereferenceable(1) @.str.2, double noundef %33)
  %35 = load ptr, ptr %20, align 8
  %36 = getelementptr inbounds nuw i8, ptr %35, i64 224
  %37 = load float, ptr %36, align 8
  %38 = fpext float %37 to double
  %39 = tail call i32 (ptr, ...) @printf(ptr noundef nonnull dereferenceable(1) @.str.3, double noundef %38)
  %40 = load ptr, ptr %20, align 8
  %41 = getelementptr inbounds nuw i8, ptr %40, i64 240
  %42 = load ptr, ptr %41, align 8
  %43 = tail call i32 (ptr, ...) @printf(ptr noundef nonnull dereferenceable(1) @.str.4, ptr noundef %42)
  %putchar = tail call i32 @putchar(i32 10)
  %indvars.iv.next64 = add nuw nsw i64 %indvars.iv63, 1
  %exitcond66.not = icmp eq i64 %indvars.iv.next64, 10
  br i1 %exitcond66.not, label %44, label %19, !llvm.loop !16

44:                                               ; preds = %25, %19
  tail call void @free(ptr noundef nonnull %5) #15
  ret void
}